target datalayout = "e-m:e-p270:32:32-p271:32:32-p272:64:64-i64:64-i128:128-f80:128-n8:16:32:64-S128"
target triple = "x86_64-pc-linux-gnu"

@_ZN12_GLOBAL__N_110dup2_countE = internal global i32 0, align 4

; Function Attrs: mustprogress nounwind uwtable
define hidden noundef i32 @_ZN4test4dup2Eii(i32 noundef %0, i32 noundef %1) #0 {
  %3 = alloca i32, align 4
  %4 = alloca i32, align 4
  %5 = alloca i32, align 4
  store i32 %0, ptr %4, align 4, !tbaa !12
  store i32 %1, ptr %5, align 4, !tbaa !12
  %6 = load i32, ptr @_ZN12_GLOBAL__N_110dup2_countE, align 4, !tbaa !12
  %7 = icmp ne i32 %6, 0
  br i1 %7, label %8, label %15

8:                                                ; preds = %2
  %9 = load i32, ptr @_ZN12_GLOBAL__N_110dup2_countE, align 4, !tbaa !12
  %10 = add nsw i32 %9, 1
  store i32 %10, ptr @_ZN12_GLOBAL__N_110dup2_countE, align 4, !tbaa !12
  %11 = icmp ne i32 %9, 3
  br i1 %11, label %12, label %14

12:                                               ; preds = %8
  %13 = call ptr @__errno_location() #20
  store i32 4, ptr %13, align 4, !tbaa !12
  store i32 -1, ptr %3, align 4
  br label %19

14:                                               ; preds = %8
  br label %15

15:                                               ; preds = %14, %2
  %16 = load i32, ptr %4, align 4, !tbaa !12
  %17 = load i32, ptr %5, align 4, !tbaa !12
  %18 = call i32 @dup2(i32 noundef %16, i32 noundef %17) #16
  store i32 %18, ptr %3, align 4
  br label %19

19:                                               ; preds = %15, %12
  %20 = load i32, ptr %3, align 4
  ret i32 %20
}