; Function Attrs: mustprogress nounwind uwtable
define hidden noundef i32 @_ZN4test4dup2Eii(i32 noundef %0, i32 noundef %1) local_unnamed_addr #0 {
  %3 = load i32, ptr @_ZN12_GLOBAL__N_110dup2_countE, align 4, !tbaa !10
  %.not = icmp eq i32 %3, 0
  br i1 %.not, label %8, label %4

4:                                                ; preds = %2
  %5 = add nsw i32 %3, 1
  store i32 %5, ptr @_ZN12_GLOBAL__N_110dup2_countE, align 4, !tbaa !10
  %.not4 = icmp eq i32 %3, 3
  br i1 %.not4, label %8, label %6

6:                                                ; preds = %4
  %7 = tail call ptr @__errno_location() #28
  store i32 4, ptr %7, align 4, !tbaa !10
  br label %10

8:                                                ; preds = %4, %2
  %9 = tail call i32 @dup2(i32 noundef %0, i32 noundef %1) #29
  br label %10

10:                                               ; preds = %8, %6
  %.0 = phi i32 [ -1, %6 ], [ %9, %8 ]
  ret i32 %.0
}